; ModuleID = '46/236.c'
source_filename = "46/236.c"
target datalayout = "e-m:e-p270:32:32-p271:32:32-p272:64:64-i64:64-f80:128-n8:16:32:64-S128"
target triple = "x86_64-pc-linux-gnu"

@.str = private unnamed_addr constant [5 x i8] c"%d%d\00", align 1
@.str.1 = private unnamed_addr constant [3 x i8] c"%d\00", align 1
@.str.2 = private unnamed_addr constant [4 x i8] c"%d\0A\00", align 1

; Function Attrs: noinline nounwind uwtable
define dso_local i32 @main() #0 {
  %1 = alloca i32, align 4
  %2 = alloca [100 x [100 x i32]], align 16
  %3 = alloca i32, align 4
  %4 = alloca i32, align 4
  %5 = alloca i32, align 4
  %6 = alloca i32, align 4
  %7 = alloca i32, align 4
  %8 = alloca i32, align 4
  store i32 0, i32* %1, align 4
  %9 = call i32 (i8*, ...) @__isoc99_scanf(i8* getelementptr inbounds ([5 x i8], [5 x i8]* @.str, i64 0, i64 0), i32* %3, i32* %4)
  %10 = load i32, i32* %3, align 4
  %11 = load i32, i32* %4, align 4
  %12 = icmp sgt i32 %10, %11
  br i1 %12, label %13, label %17

13:                                               ; preds = %0
  %14 = load i32, i32* %4, align 4
  %15 = add nsw i32 %14, 1
  %16 = sdiv i32 %15, 2
  store i32 %16, i32* %8, align 4
  br label %21

17:                                               ; preds = %0
  %18 = load i32, i32* %3, align 4
  %19 = add nsw i32 %18, 1
  %20 = sdiv i32 %19, 2
  store i32 %20, i32* %8, align 4
  br label %21

21:                                               ; preds = %17, %13
  store i32 0, i32* %5, align 4
  br label %22

22:                                               ; preds = %43, %21
  %23 = load i32, i32* %5, align 4
  %24 = load i32, i32* %3, align 4
  %25 = icmp slt i32 %23, %24
  br i1 %25, label %26, label %46

26:                                               ; preds = %22
  store i32 0, i32* %6, align 4
  br label %27

27:                                               ; preds = %39, %26
  %28 = load i32, i32* %6, align 4
  %29 = load i32, i32* %4, align 4
  %30 = icmp slt i32 %28, %29
  br i1 %30, label %31, label %42

31:                                               ; preds = %27
  %32 = load i32, i32* %5, align 4
  %33 = sext i32 %32 to i64
  %34 = getelementptr inbounds [100 x [100 x i32]], [100 x [100 x i32]]* %2, i64 0, i64 %33
  %35 = load i32, i32* %6, align 4
  %36 = sext i32 %35 to i64
  %37 = getelementptr inbounds [100 x i32], [100 x i32]* %34, i64 0, i64 %36
  %38 = call i32 (i8*, ...) @__isoc99_scanf(i8* getelementptr inbounds ([3 x i8], [3 x i8]* @.str.1, i64 0, i64 0), i32* %37)
  br label %39

39:                                               ; preds = %31
  %40 = load i32, i32* %6, align 4
  %41 = add nsw i32 %40, 1
  store i32 %41, i32* %6, align 4
  br label %27

42:                                               ; preds = %27
  br label %43

43:                                               ; preds = %42
  %44 = load i32, i32* %5, align 4
  %45 = add nsw i32 %44, 1
  store i32 %45, i32* %5, align 4
  br label %22

46:                                               ; preds = %22
  store i32 1, i32* %7, align 4
  br label %47

47:                                               ; preds = %162, %46
  %48 = load i32, i32* %7, align 4
  %49 = load i32, i32* %8, align 4
  %50 = icmp sle i32 %48, %49
  br i1 %50, label %51, label %165

51:                                               ; preds = %47
  %52 = load i32, i32* %7, align 4
  %53 = sub nsw i32 %52, 1
  store i32 %53, i32* %5, align 4
  %54 = load i32, i32* %7, align 4
  %55 = sub nsw i32 %54, 1
  store i32 %55, i32* %6, align 4
  br label %56

56:                                               ; preds = %71, %51
  %57 = load i32, i32* %6, align 4
  %58 = load i32, i32* %4, align 4
  %59 = load i32, i32* %7, align 4
  %60 = sub nsw i32 %58, %59
  %61 = icmp sle i32 %57, %60
  br i1 %61, label %62, label %74

62:                                               ; preds = %56
  %63 = load i32, i32* %5, align 4
  %64 = sext i32 %63 to i64
  %65 = getelementptr inbounds [100 x [100 x i32]], [100 x [100 x i32]]* %2, i64 0, i64 %64
  %66 = load i32, i32* %6, align 4
  %67 = sext i32 %66 to i64
  %68 = getelementptr inbounds [100 x i32], [100 x i32]* %65, i64 0, i64 %67
  %69 = load i32, i32* %68, align 4
  %70 = call i32 (i8*, ...) @printf(i8* getelementptr inbounds ([4 x i8], [4 x i8]* @.str.2, i64 0, i64 0), i32 %69)
  br label %71

71:                                               ; preds = %62
  %72 = load i32, i32* %6, align 4
  %73 = add nsw i32 %72, 1
  store i32 %73, i32* %6, align 4
  br label %56

74:                                               ; preds = %56
  %75 = load i32, i32* %4, align 4
  %76 = load i32, i32* %7, align 4
  %77 = sub nsw i32 %75, %76
  store i32 %77, i32* %6, align 4
  %78 = load i32, i32* %7, align 4
  store i32 %78, i32* %5, align 4
  br label %79

79:                                               ; preds = %94, %74
  %80 = load i32, i32* %5, align 4
  %81 = load i32, i32* %3, align 4
  %82 = load i32, i32* %7, align 4
  %83 = sub nsw i32 %81, %82
  %84 = icmp sle i32 %80, %83
  br i1 %84, label %85, label %97

85:                                               ; preds = %79
  %86 = load i32, i32* %5, align 4
  %87 = sext i32 %86 to i64
  %88 = getelementptr inbounds [100 x [100 x i32]], [100 x [100 x i32]]* %2, i64 0, i64 %87
  %89 = load i32, i32* %6, align 4
  %90 = sext i32 %89 to i64
  %91 = getelementptr inbounds [100 x i32], [100 x i32]* %88, i64 0, i64 %90
  %92 = load i32, i32* %91, align 4
  %93 = call i32 (i8*, ...) @printf(i8* getelementptr inbounds ([4 x i8], [4 x i8]* @.str.2, i64 0, i64 0), i32 %92)
  br label %94

94:                                               ; preds = %85
  %95 = load i32, i32* %5, align 4
  %96 = add nsw i32 %95, 1
  store i32 %96, i32* %5, align 4
  br label %79

97:                                               ; preds = %79
  %98 = load i32, i32* %3, align 4
  %99 = load i32, i32* %7, align 4
  %100 = sub nsw i32 %98, %99
  %101 = load i32, i32* %7, align 4
  %102 = sub nsw i32 %101, 1
  %103 = icmp sgt i32 %100, %102
  br i1 %103, label %104, label %130

104:                                              ; preds = %97
  %105 = load i32, i32* %3, align 4
  %106 = load i32, i32* %7, align 4
  %107 = sub nsw i32 %105, %106
  store i32 %107, i32* %5, align 4
  %108 = load i32, i32* %4, align 4
  %109 = load i32, i32* %7, align 4
  %110 = sub nsw i32 %108, %109
  %111 = sub nsw i32 %110, 1
  store i32 %111, i32* %6, align 4
  br label %112

112:                                              ; preds = %126, %104
  %113 = load i32, i32* %6, align 4
  %114 = load i32, i32* %7, align 4
  %115 = sub nsw i32 %114, 1
  %116 = icmp sge i32 %113, %115
  br i1 %116, label %117, label %129

117:                                              ; preds = %112
  %118 = load i32, i32* %5, align 4
  %119 = sext i32 %118 to i64
  %120 = getelementptr inbounds [100 x [100 x i32]], [100 x [100 x i32]]* %2, i64 0, i64 %119
  %121 = load i32, i32* %6, align 4
  %122 = sext i32 %121 to i64
  %123 = getelementptr inbounds [100 x i32], [100 x i32]* %120, i64 0, i64 %122
  %124 = load i32, i32* %123, align 4
  %125 = call i32 (i8*, ...) @printf(i8* getelementptr inbounds ([4 x i8], [4 x i8]* @.str.2, i64 0, i64 0), i32 %124)
  br label %126

126:                                              ; preds = %117
  %127 = load i32, i32* %6, align 4
  %128 = add nsw i32 %127, -1
  store i32 %128, i32* %6, align 4
  br label %112

129:                                              ; preds = %112
  br label %130

130:                                              ; preds = %129, %97
  %131 = load i32, i32* %7, align 4
  %132 = sub nsw i32 %131, 1
  %133 = load i32, i32* %4, align 4
  %134 = load i32, i32* %7, align 4
  %135 = sub nsw i32 %133, %134
  %136 = icmp slt i32 %132, %135
  br i1 %136, label %137, label %161

137:                                              ; preds = %130
  %138 = load i32, i32* %7, align 4
  %139 = sub nsw i32 %138, 1
  store i32 %139, i32* %6, align 4
  %140 = load i32, i32* %3, align 4
  %141 = load i32, i32* %7, align 4
  %142 = sub nsw i32 %140, %141
  %143 = sub nsw i32 %142, 1
  store i32 %143, i32* %5, align 4
  br label %144

144:                                              ; preds = %157, %137
  %145 = load i32, i32* %5, align 4
  %146 = load i32, i32* %7, align 4
  %147 = icmp sge i32 %145, %146
  br i1 %147, label %148, label %160

148:                                              ; preds = %144
  %149 = load i32, i32* %5, align 4
  %150 = sext i32 %149 to i64
  %151 = getelementptr inbounds [100 x [100 x i32]], [100 x [100 x i32]]* %2, i64 0, i64 %150
  %152 = load i32, i32* %6, align 4
  %153 = sext i32 %152 to i64
  %154 = getelementptr inbounds [100 x i32], [100 x i32]* %151, i64 0, i64 %153
  %155 = load i32, i32* %154, align 4
  %156 = call i32 (i8*, ...) @printf(i8* getelementptr inbounds ([4 x i8], [4 x i8]* @.str.2, i64 0, i64 0), i32 %155)
  br label %157

157:                                              ; preds = %148
  %158 = load i32, i32* %5, align 4
  %159 = add nsw i32 %158, -1
  store i32 %159, i32* %5, align 4
  br label %144

160:                                              ; preds = %144
  br label %161

161:                                              ; preds = %160, %130
  br label %162

162:                                              ; preds = %161
  %163 = load i32, i32* %7, align 4
  %164 = add nsw i32 %163, 1
  store i32 %164, i32* %7, align 4
  br label %47

165:                                              ; preds = %47
  ret i32 0
}

declare dso_local i32 @__isoc99_scanf(i8*, ...) #1

declare dso_local i32 @printf(i8*, ...) #1


!llvm.module.flags = !{!0}
!llvm.ident = !{!1}

!0 = !{i32 1, !"wchar_size", i32 4}
!1 = !{!"clang version 10.0.0-4ubuntu1 "}
